; Function Attrs: mustprogress uwtable
define noundef i32 @_ZNK6icu_7513UnicodeString7indexOfEPKDsiiii(ptr noundef nonnull align 8 dereferenceable(64) %this, ptr noundef %srcChars, i32 noundef %srcStart, i32 noundef %srcLength, i32 noundef %start, i32 noundef %length) local_unnamed_addr #5 align 2 {
entry:
  %fUnion.i = getelementptr inbounds i8, ptr %this, i64 8
  %0 = load i16, ptr %fUnion.i, align 8
  %conv2.i16 = and i16 %0, 1
  %tobool = icmp ne i16 %conv2.i16, 0
  %cmp = icmp eq ptr %srcChars, null
  %or.cond = or i1 %cmp, %tobool
  %cmp3 = icmp slt i32 %srcStart, 0
  %or.cond1 = or i1 %cmp3, %or.cond
  %cmp5 = icmp eq i32 %srcLength, 0
  %or.cond2 = or i1 %cmp5, %or.cond1
  br i1 %or.cond2, label %return, label %if.end

if.end:                                           ; preds = %entry
  %cmp6 = icmp slt i32 %srcLength, 0
  %idxprom = zext nneg i32 %srcStart to i64
  br i1 %cmp6, label %land.lhs.true, label %if.end9

land.lhs.true:                                    ; preds = %if.end
  %arrayidx = getelementptr inbounds i16, ptr %srcChars, i64 %idxprom
  %1 = load i16, ptr %arrayidx, align 2
  %cmp7 = icmp eq i16 %1, 0
  br i1 %cmp7, label %return, label %if.end9

if.end9:                                          ; preds = %if.end, %land.lhs.true
  %cmp.i.i.i = icmp slt i16 %0, 0
  %2 = ashr i16 %0, 5
  %shr.i.i.i = sext i16 %2 to i32
  %fLength.i.i = getelementptr inbounds i8, ptr %this, i64 12
  %3 = load i32, ptr %fLength.i.i, align 4
  %cond.i.i = select i1 %cmp.i.i.i, i32 %3, i32 %shr.i.i.i
  %cmp.i = icmp slt i32 %start, 0
  %spec.select = tail call i32 @llvm.smin.i32(i32 %cond.i.i, i32 %start)
  %start.addr.0 = select i1 %cmp.i, i32 0, i32 %spec.select
  %cmp5.i = icmp slt i32 %length, 0
  %sub.i = sub nsw i32 %cond.i.i, %start.addr.0
  %spec.select15 = tail call i32 @llvm.smin.i32(i32 %sub.i, i32 %length)
  %length.addr.0 = select i1 %cmp5.i, i32 0, i32 %spec.select15
  %4 = and i16 %0, 2
  %tobool.not.i = icmp eq i16 %4, 0
  %fBuffer.i = getelementptr inbounds i8, ptr %this, i64 10
  %fArray.i = getelementptr inbounds i8, ptr %this, i64 24
  %5 = load ptr, ptr %fArray.i, align 8
  %cond.i = select i1 %tobool.not.i, ptr %5, ptr %fBuffer.i
  %idx.ext = sext i32 %start.addr.0 to i64
  %add.ptr = getelementptr inbounds i16, ptr %cond.i, i64 %idx.ext
  %add.ptr12 = getelementptr inbounds i16, ptr %srcChars, i64 %idxprom
  %call13 = tail call ptr @u_strFindFirst_75(ptr noundef %add.ptr, i32 noundef %length.addr.0, ptr noundef %add.ptr12, i32 noundef %srcLength)
  %cmp14 = icmp eq ptr %call13, null
  br i1 %cmp14, label %return, label %if.else

if.else:                                          ; preds = %if.end9
  %sub.ptr.lhs.cast = ptrtoint ptr %call13 to i64
  %sub.ptr.rhs.cast = ptrtoint ptr %cond.i to i64
  %sub.ptr.sub = sub i64 %sub.ptr.lhs.cast, %sub.ptr.rhs.cast
  %sub.ptr.div = lshr exact i64 %sub.ptr.sub, 1
  %conv16 = trunc i64 %sub.ptr.div to i32
  br label %return

return:                                           ; preds = %if.end9, %land.lhs.true, %entry, %if.else
  %retval.0 = phi i32 [ %conv16, %if.else ], [ -1, %entry ], [ -1, %land.lhs.true ], [ -1, %if.end9 ]
  ret i32 %retval.0
}